; Function Attrs: nounwind uwtable
define dso_local void @ExecForeignScanInitializeDSM(ptr noundef %0, ptr noundef %1) local_unnamed_addr #0 {
  %3 = getelementptr inbounds nuw i8, ptr %0, i64 248
  %4 = load ptr, ptr %3, align 8
  %5 = getelementptr inbounds nuw i8, ptr %4, i64 296
  %6 = load ptr, ptr %5, align 8
  %.not = icmp eq ptr %6, null
  br i1 %.not, label %20, label %7

7:                                                ; preds = %2
  %8 = getelementptr inbounds nuw i8, ptr %0, i64 8
  %9 = load ptr, ptr %8, align 8
  %10 = getelementptr inbounds nuw i8, ptr %9, i64 40
  %11 = load i32, ptr %10, align 8
  %12 = getelementptr inbounds nuw i8, ptr %1, i64 88
  %13 = load ptr, ptr %12, align 8
  %14 = getelementptr inbounds nuw i8, ptr %0, i64 232
  %15 = load i64, ptr %14, align 8
  %16 = tail call ptr @shm_toc_allocate(ptr noundef %13, i64 noundef %15) #5
  %17 = load ptr, ptr %5, align 8
  tail call void %17(ptr noundef nonnull %0, ptr noundef %1, ptr noundef %16) #5
  %18 = load ptr, ptr %12, align 8
  %19 = sext i32 %11 to i64
  tail call void @shm_toc_insert(ptr noundef %18, i64 noundef %19, ptr noundef %16) #5
  br label %20

20:                                               ; preds = %7, %2
  ret void
}